target datalayout = "e-m:e-p270:32:32-p271:32:32-p272:64:64-i64:64-i128:128-f80:128-n8:16:32:64-S128"
target triple = "x86_64-unknown-linux-gnu"

%"struct.msdfgen::Vector2" = type { double, double }
%"class.msdfgen::LinearSegment" = type { %"class.msdfgen::EdgeSegment.base", [2 x %"struct.msdfgen::Vector2"] }
%"class.msdfgen::EdgeSegment.base" = type <{ ptr, i32 }>

; Function Attrs: mustprogress nounwind uwtable
define internal void @_ZN7msdfgenL11pointBoundsENS_7Vector2ERdS1_S1_S1_(double %p.coerce0, double %p.coerce1, ptr noundef nonnull align 8 dereferenceable(8) %l, ptr noundef nonnull align 8 dereferenceable(8) %b, ptr noundef nonnull align 8 dereferenceable(8) %r, ptr noundef nonnull align 8 dereferenceable(8) %t) #4 {
entry:
  %p = alloca %"struct.msdfgen::Vector2", align 8
  %l.addr = alloca ptr, align 8
  %b.addr = alloca ptr, align 8
  %r.addr = alloca ptr, align 8
  %t.addr = alloca ptr, align 8
  %0 = getelementptr inbounds { double, double }, ptr %p, i32 0, i32 0
  store double %p.coerce0, ptr %0, align 8
  %1 = getelementptr inbounds { double, double }, ptr %p, i32 0, i32 1
  store double %p.coerce1, ptr %1, align 8
  store ptr %l, ptr %l.addr, align 8
  store ptr %b, ptr %b.addr, align 8
  store ptr %r, ptr %r.addr, align 8
  store ptr %t, ptr %t.addr, align 8
  %x = getelementptr inbounds %"struct.msdfgen::Vector2", ptr %p, i32 0, i32 0
  %2 = load double, ptr %x, align 8
  %3 = load ptr, ptr %l.addr, align 8
  %4 = load double, ptr %3, align 8
  %cmp = fcmp olt double %2, %4
  br i1 %cmp, label %if.then, label %if.end

if.then:                                          ; preds = %entry
  %x1 = getelementptr inbounds %"struct.msdfgen::Vector2", ptr %p, i32 0, i32 0
  %5 = load double, ptr %x1, align 8
  %6 = load ptr, ptr %l.addr, align 8
  store double %5, ptr %6, align 8
  br label %if.end

if.end:                                           ; preds = %if.then, %entry
  %y = getelementptr inbounds %"struct.msdfgen::Vector2", ptr %p, i32 0, i32 1
  %7 = load double, ptr %y, align 8
  %8 = load ptr, ptr %b.addr, align 8
  %9 = load double, ptr %8, align 8
  %cmp2 = fcmp olt double %7, %9
  br i1 %cmp2, label %if.then3, label %if.end5

if.then3:                                         ; preds = %if.end
  %y4 = getelementptr inbounds %"struct.msdfgen::Vector2", ptr %p, i32 0, i32 1
  %10 = load double, ptr %y4, align 8
  %11 = load ptr, ptr %b.addr, align 8
  store double %10, ptr %11, align 8
  br label %if.end5

if.end5:                                          ; preds = %if.then3, %if.end
  %x6 = getelementptr inbounds %"struct.msdfgen::Vector2", ptr %p, i32 0, i32 0
  %12 = load double, ptr %x6, align 8
  %13 = load ptr, ptr %r.addr, align 8
  %14 = load double, ptr %13, align 8
  %cmp7 = fcmp ogt double %12, %14
  br i1 %cmp7, label %if.then8, label %if.end10

if.then8:                                         ; preds = %if.end5
  %x9 = getelementptr inbounds %"struct.msdfgen::Vector2", ptr %p, i32 0, i32 0
  %15 = load double, ptr %x9, align 8
  %16 = load ptr, ptr %r.addr, align 8
  store double %15, ptr %16, align 8
  br label %if.end10

if.end10:                                         ; preds = %if.then8, %if.end5
  %y11 = getelementptr inbounds %"struct.msdfgen::Vector2", ptr %p, i32 0, i32 1
  %17 = load double, ptr %y11, align 8
  %18 = load ptr, ptr %t.addr, align 8
  %19 = load double, ptr %18, align 8
  %cmp12 = fcmp ogt double %17, %19
  br i1 %cmp12, label %if.then13, label %if.end15

if.then13:                                        ; preds = %if.end10
  %y14 = getelementptr inbounds %"struct.msdfgen::Vector2", ptr %p, i32 0, i32 1
  %20 = load double, ptr %y14, align 8
  %21 = load ptr, ptr %t.addr, align 8
  store double %20, ptr %21, align 8
  br label %if.end15

if.end15:                                         ; preds = %if.then13, %if.end10
  ret void
}

; Function Attrs: mustprogress uwtable
define dso_local void @_ZNK7msdfgen13LinearSegment5boundERdS1_S1_S1_(ptr noundef nonnull align 8 dereferenceable(48) %this, ptr noundef nonnull align 8 dereferenceable(8) %l, ptr noundef nonnull align 8 dereferenceable(8) %b, ptr noundef nonnull align 8 dereferenceable(8) %r, ptr noundef nonnull align 8 dereferenceable(8) %t) unnamed_addr #0 align 2 {
entry:
  %this.addr = alloca ptr, align 8
  %l.addr = alloca ptr, align 8
  %b.addr = alloca ptr, align 8
  %r.addr = alloca ptr, align 8
  %t.addr = alloca ptr, align 8
  %agg.tmp = alloca %"struct.msdfgen::Vector2", align 8
  %agg.tmp2 = alloca %"struct.msdfgen::Vector2", align 8
  store ptr %this, ptr %this.addr, align 8
  store ptr %l, ptr %l.addr, align 8
  store ptr %b, ptr %b.addr, align 8
  store ptr %r, ptr %r.addr, align 8
  store ptr %t, ptr %t.addr, align 8
  %this1 = load ptr, ptr %this.addr, align 8
  %p = getelementptr inbounds %"class.msdfgen::LinearSegment", ptr %this1, i32 0, i32 1
  %arrayidx = getelementptr inbounds [2 x %"struct.msdfgen::Vector2"], ptr %p, i64 0, i64 0
  call void @llvm.memcpy.p0.p0.i64(ptr align 8 %agg.tmp, ptr align 8 %arrayidx, i64 16, i1 false)
  %0 = load ptr, ptr %l.addr, align 8
  %1 = load ptr, ptr %b.addr, align 8
  %2 = load ptr, ptr %r.addr, align 8
  %3 = load ptr, ptr %t.addr, align 8
  %4 = getelementptr inbounds { double, double }, ptr %agg.tmp, i32 0, i32 0
  %5 = load double, ptr %4, align 8
  %6 = getelementptr inbounds { double, double }, ptr %agg.tmp, i32 0, i32 1
  %7 = load double, ptr %6, align 8
  call void @_ZN7msdfgenL11pointBoundsENS_7Vector2ERdS1_S1_S1_(double %5, double %7, ptr noundef nonnull align 8 dereferenceable(8) %0, ptr noundef nonnull align 8 dereferenceable(8) %1, ptr noundef nonnull align 8 dereferenceable(8) %2, ptr noundef nonnull align 8 dereferenceable(8) %3)
  %p3 = getelementptr inbounds %"class.msdfgen::LinearSegment", ptr %this1, i32 0, i32 1
  %arrayidx4 = getelementptr inbounds [2 x %"struct.msdfgen::Vector2"], ptr %p3, i64 0, i64 1
  call void @llvm.memcpy.p0.p0.i64(ptr align 8 %agg.tmp2, ptr align 8 %arrayidx4, i64 16, i1 false)
  %8 = load ptr, ptr %l.addr, align 8
  %9 = load ptr, ptr %b.addr, align 8
  %10 = load ptr, ptr %r.addr, align 8
  %11 = load ptr, ptr %t.addr, align 8
  %12 = getelementptr inbounds { double, double }, ptr %agg.tmp2, i32 0, i32 0
  %13 = load double, ptr %12, align 8
  %14 = getelementptr inbounds { double, double }, ptr %agg.tmp2, i32 0, i32 1
  %15 = load double, ptr %14, align 8
  call void @_ZN7msdfgenL11pointBoundsENS_7Vector2ERdS1_S1_S1_(double %13, double %15, ptr noundef nonnull align 8 dereferenceable(8) %8, ptr noundef nonnull align 8 dereferenceable(8) %9, ptr noundef nonnull align 8 dereferenceable(8) %10, ptr noundef nonnull align 8 dereferenceable(8) %11)
  ret void
}