; Function Attrs: mustprogress nofree norecurse nosync nounwind willreturn memory(argmem: readwrite) uwtable
define dso_local void @_ZNK7msdfgen13LinearSegment5boundERdS1_S1_S1_(ptr nocapture noundef nonnull readonly align 8 dereferenceable(48) %this, ptr nocapture noundef nonnull align 8 dereferenceable(8) %l, ptr nocapture noundef nonnull align 8 dereferenceable(8) %b, ptr nocapture noundef nonnull align 8 dereferenceable(8) %r, ptr nocapture noundef nonnull align 8 dereferenceable(8) %t) unnamed_addr #10 align 2 {
entry:
  %p = getelementptr inbounds i8, ptr %this, i64 16
  %agg.tmp.sroa.0.0.copyload = load double, ptr %p, align 8
  %agg.tmp.sroa.2.0.arrayidx.sroa_idx = getelementptr inbounds i8, ptr %this, i64 24
  %agg.tmp.sroa.2.0.copyload = load double, ptr %agg.tmp.sroa.2.0.arrayidx.sroa_idx, align 8
  %0 = load double, ptr %l, align 8
  %cmp.i = fcmp ogt double %0, %agg.tmp.sroa.0.0.copyload
  br i1 %cmp.i, label %if.then.i, label %if.end.i

if.then.i:                                        ; preds = %entry
  store double %agg.tmp.sroa.0.0.copyload, ptr %l, align 8
  br label %if.end.i

if.end.i:                                         ; preds = %if.then.i, %entry
  %1 = load double, ptr %b, align 8
  %cmp2.i = fcmp ogt double %1, %agg.tmp.sroa.2.0.copyload
  br i1 %cmp2.i, label %if.then3.i, label %if.end5.i

if.then3.i:                                       ; preds = %if.end.i
  store double %agg.tmp.sroa.2.0.copyload, ptr %b, align 8
  br label %if.end5.i

if.end5.i:                                        ; preds = %if.then3.i, %if.end.i
  %2 = load double, ptr %r, align 8
  %cmp7.i = fcmp olt double %2, %agg.tmp.sroa.0.0.copyload
  br i1 %cmp7.i, label %if.then8.i, label %if.end10.i

if.then8.i:                                       ; preds = %if.end5.i
  store double %agg.tmp.sroa.0.0.copyload, ptr %r, align 8
  br label %if.end10.i

if.end10.i:                                       ; preds = %if.then8.i, %if.end5.i
  %3 = load double, ptr %t, align 8
  %cmp12.i = fcmp olt double %3, %agg.tmp.sroa.2.0.copyload
  br i1 %cmp12.i, label %if.then13.i, label %_ZN7msdfgenL11pointBoundsENS_7Vector2ERdS1_S1_S1_.exit

if.then13.i:                                      ; preds = %if.end10.i
  store double %agg.tmp.sroa.2.0.copyload, ptr %t, align 8
  br label %_ZN7msdfgenL11pointBoundsENS_7Vector2ERdS1_S1_S1_.exit

_ZN7msdfgenL11pointBoundsENS_7Vector2ERdS1_S1_S1_.exit: ; preds = %if.end10.i, %if.then13.i
  %arrayidx4 = getelementptr inbounds i8, ptr %this, i64 32
  %agg.tmp2.sroa.0.0.copyload = load double, ptr %arrayidx4, align 8
  %agg.tmp2.sroa.2.0.arrayidx4.sroa_idx = getelementptr inbounds i8, ptr %this, i64 40
  %agg.tmp2.sroa.2.0.copyload = load double, ptr %agg.tmp2.sroa.2.0.arrayidx4.sroa_idx, align 8
  %4 = load double, ptr %l, align 8
  %cmp.i5 = fcmp ogt double %4, %agg.tmp2.sroa.0.0.copyload
  br i1 %cmp.i5, label %if.then.i15, label %if.end.i6

if.then.i15:                                      ; preds = %_ZN7msdfgenL11pointBoundsENS_7Vector2ERdS1_S1_S1_.exit
  store double %agg.tmp2.sroa.0.0.copyload, ptr %l, align 8
  br label %if.end.i6

if.end.i6:                                        ; preds = %if.then.i15, %_ZN7msdfgenL11pointBoundsENS_7Vector2ERdS1_S1_S1_.exit
  %5 = load double, ptr %b, align 8
  %cmp2.i7 = fcmp ogt double %5, %agg.tmp2.sroa.2.0.copyload
  br i1 %cmp2.i7, label %if.then3.i14, label %if.end5.i8

if.then3.i14:                                     ; preds = %if.end.i6
  store double %agg.tmp2.sroa.2.0.copyload, ptr %b, align 8
  br label %if.end5.i8

if.end5.i8:                                       ; preds = %if.then3.i14, %if.end.i6
  %6 = load double, ptr %r, align 8
  %cmp7.i9 = fcmp olt double %6, %agg.tmp2.sroa.0.0.copyload
  br i1 %cmp7.i9, label %if.then8.i13, label %if.end10.i10

if.then8.i13:                                     ; preds = %if.end5.i8
  store double %agg.tmp2.sroa.0.0.copyload, ptr %r, align 8
  br label %if.end10.i10

if.end10.i10:                                     ; preds = %if.then8.i13, %if.end5.i8
  %7 = load double, ptr %t, align 8
  %cmp12.i11 = fcmp olt double %7, %agg.tmp2.sroa.2.0.copyload
  br i1 %cmp12.i11, label %if.then13.i12, label %_ZN7msdfgenL11pointBoundsENS_7Vector2ERdS1_S1_S1_.exit16

if.then13.i12:                                    ; preds = %if.end10.i10
  store double %agg.tmp2.sroa.2.0.copyload, ptr %t, align 8
  br label %_ZN7msdfgenL11pointBoundsENS_7Vector2ERdS1_S1_S1_.exit16

_ZN7msdfgenL11pointBoundsENS_7Vector2ERdS1_S1_S1_.exit16: ; preds = %if.end10.i10, %if.then13.i12
  ret void
}